target datalayout = "e-m:e-p270:32:32-p271:32:32-p272:64:64-i64:64-i128:128-f80:128-n8:16:32:64-S128"
target triple = "x86_64-pc-linux-gnu"

%struct.AVProbeData = type { ptr, ptr, i32, ptr }

; Function Attrs: alwaysinline nounwind willreturn memory(none) uwtable
define internal i32 @av_bswap32(i32 noundef %0) #1 {
  %2 = alloca i32, align 4
  store i32 %0, ptr %2, align 4, !tbaa !44
  %3 = load i32, ptr %2, align 4, !tbaa !44
  %4 = shl i32 %3, 8
  %5 = and i32 %4, 65280
  %6 = load i32, ptr %2, align 4, !tbaa !44
  %7 = lshr i32 %6, 8
  %8 = and i32 %7, 255
  %9 = or i32 %5, %8
  %10 = shl i32 %9, 16
  %11 = load i32, ptr %2, align 4, !tbaa !44
  %12 = lshr i32 %11, 16
  %13 = shl i32 %12, 8
  %14 = and i32 %13, 65280
  %15 = load i32, ptr %2, align 4, !tbaa !44
  %16 = lshr i32 %15, 16
  %17 = lshr i32 %16, 8
  %18 = and i32 %17, 255
  %19 = or i32 %14, %18
  %20 = or i32 %10, %19
  ret i32 %20
}

; Function Attrs: alwaysinline nounwind willreturn memory(none) uwtable
define internal zeroext i16 @av_bswap16(i16 noundef zeroext %0) #1 {
  %2 = alloca i16, align 2
  store i16 %0, ptr %2, align 2, !tbaa !60
  %3 = load i16, ptr %2, align 2, !tbaa !60
  %4 = zext i16 %3 to i32
  %5 = ashr i32 %4, 8
  %6 = load i16, ptr %2, align 2, !tbaa !60
  %7 = zext i16 %6 to i32
  %8 = shl i32 %7, 8
  %9 = or i32 %5, %8
  %10 = trunc i32 %9 to i16
  store i16 %10, ptr %2, align 2, !tbaa !60
  %11 = load i16, ptr %2, align 2, !tbaa !60
  ret i16 %11
}

; Function Attrs: nounwind uwtable
define internal i32 @ast_probe(ptr noundef %0) #0 {
  %2 = alloca i32, align 4
  %3 = alloca ptr, align 8
  store ptr %0, ptr %3, align 8, !tbaa !4
  %4 = load ptr, ptr %3, align 8, !tbaa !4
  %5 = getelementptr inbounds nuw %struct.AVProbeData, ptr %4, i32 0, i32 1
  %6 = load ptr, ptr %5, align 8, !tbaa !9
  %7 = load i32, ptr %6, align 1, !tbaa !13
  %8 = icmp ne i32 %7, 1297241171
  br i1 %8, label %9, label %10

9:                                                ; preds = %1
  store i32 0, ptr %2, align 4
  br label %53

10:                                               ; preds = %1
  %11 = load ptr, ptr %3, align 8, !tbaa !4
  %12 = getelementptr inbounds nuw %struct.AVProbeData, ptr %11, i32 0, i32 1
  %13 = load ptr, ptr %12, align 8, !tbaa !9
  %14 = getelementptr inbounds i8, ptr %13, i64 10
  %15 = load i16, ptr %14, align 1, !tbaa !13
  %16 = call zeroext i16 @av_bswap16(i16 noundef zeroext %15) #6
  %17 = icmp ne i16 %16, 0
  br i1 %17, label %18, label %51

18:                                               ; preds = %10
  %19 = load ptr, ptr %3, align 8, !tbaa !4
  %20 = getelementptr inbounds nuw %struct.AVProbeData, ptr %19, i32 0, i32 1
  %21 = load ptr, ptr %20, align 8, !tbaa !9
  %22 = getelementptr inbounds i8, ptr %21, i64 12
  %23 = load i16, ptr %22, align 1, !tbaa !13
  %24 = call zeroext i16 @av_bswap16(i16 noundef zeroext %23) #6
  %25 = icmp ne i16 %24, 0
  br i1 %25, label %26, label %51

26:                                               ; preds = %18
  %27 = load ptr, ptr %3, align 8, !tbaa !4
  %28 = getelementptr inbounds nuw %struct.AVProbeData, ptr %27, i32 0, i32 1
  %29 = load ptr, ptr %28, align 8, !tbaa !9
  %30 = getelementptr inbounds i8, ptr %29, i64 12
  %31 = load i16, ptr %30, align 1, !tbaa !13
  %32 = call zeroext i16 @av_bswap16(i16 noundef zeroext %31) #6
  %33 = zext i16 %32 to i32
  %34 = icmp sgt i32 %33, 256
  br i1 %34, label %51, label %35

35:                                               ; preds = %26
  %36 = load ptr, ptr %3, align 8, !tbaa !4
  %37 = getelementptr inbounds nuw %struct.AVProbeData, ptr %36, i32 0, i32 1
  %38 = load ptr, ptr %37, align 8, !tbaa !9
  %39 = getelementptr inbounds i8, ptr %38, i64 16
  %40 = load i32, ptr %39, align 1, !tbaa !13
  %41 = call i32 @av_bswap32(i32 noundef %40) #6
  %42 = icmp ne i32 %41, 0
  br i1 %42, label %43, label %51

43:                                               ; preds = %35
  %44 = load ptr, ptr %3, align 8, !tbaa !4
  %45 = getelementptr inbounds nuw %struct.AVProbeData, ptr %44, i32 0, i32 1
  %46 = load ptr, ptr %45, align 8, !tbaa !9
  %47 = getelementptr inbounds i8, ptr %46, i64 16
  %48 = load i32, ptr %47, align 1, !tbaa !13
  %49 = call i32 @av_bswap32(i32 noundef %48) #6
  %50 = icmp ugt i32 %49, 384000
  br i1 %50, label %51, label %52

51:                                               ; preds = %43, %35, %26, %18, %10
  store i32 12, ptr %2, align 4
  br label %53

52:                                               ; preds = %43
  store i32 66, ptr %2, align 4
  br label %53

53:                                               ; preds = %52, %51, %9
  %54 = load i32, ptr %2, align 4
  ret i32 %54
}