; Function Attrs: mustprogress nofree norecurse nosync nounwind willreturn memory(read, inaccessiblemem: none) uwtable
define internal range(i32 0, 67) i32 @ast_probe(ptr noundef readonly captures(none) %0) #0 {
  %2 = getelementptr inbounds nuw i8, ptr %0, i64 8
  %3 = load ptr, ptr %2, align 8, !tbaa !4
  %4 = load i32, ptr %3, align 1, !tbaa !11
  %.not = icmp eq i32 %4, 1297241171
  br i1 %.not, label %5, label %18

5:                                                ; preds = %1
  %6 = getelementptr inbounds nuw i8, ptr %3, i64 10
  %7 = load i16, ptr %6, align 1, !tbaa !11
  %.not8 = icmp eq i16 %7, 0
  br i1 %.not8, label %18, label %8

8:                                                ; preds = %5
  %9 = getelementptr inbounds nuw i8, ptr %3, i64 12
  %10 = load i16, ptr %9, align 1, !tbaa !11
  %11 = tail call i16 @llvm.bswap.i16(i16 %10)
  %.not9 = icmp eq i16 %10, 0
  %12 = icmp ugt i16 %11, 256
  %or.cond = or i1 %.not9, %12
  br i1 %or.cond, label %18, label %13

13:                                               ; preds = %8
  %14 = getelementptr inbounds nuw i8, ptr %3, i64 16
  %15 = load i32, ptr %14, align 1, !tbaa !11
  %16 = tail call i32 @llvm.bswap.i32(i32 %15)
  %.not10 = icmp eq i32 %15, 0
  %17 = icmp ugt i32 %16, 384000
  %or.cond11 = or i1 %.not10, %17
  %spec.select = select i1 %or.cond11, i32 12, i32 66
  br label %18

18:                                               ; preds = %13, %5, %8, %1
  %.0 = phi i32 [ 0, %1 ], [ 12, %8 ], [ 12, %5 ], [ %spec.select, %13 ]
  ret i32 %.0
}